Certificate:
    Data:
        Version: 3 (0x2)
        Serial Number: 13 (0xd)
        Signature Algorithm: sha1WithRSAEncryption
        Issuer: C=NL, O=PolarSSL, CN=PolarSSL Test CA
        Validity
            Not Before: Feb  7 16:06:36 2012 GMT
            Not After : Feb  7 16:06:36 2022 GMT
        Subject: C=NL, O=PolarSSL, CN=example.com
        Subject Public Key Info:
            Public Key Algorithm: rsaEncryption
                Public-Key: (2048 bit)
                Modulus:
                    00:b9:3c:4a:c5:c8:a3:8e:90:17:a4:9e:52:aa:71:
                    75:26:61:80:e7:c7:b5:6d:8c:ff:aa:b6:41:26:b7:
                    be:11:ad:5c:73:16:0c:64:11:48:04:ff:d6:e1:3b:
                    05:db:89:bb:b3:97:09:d5:1c:14:dd:68:87:39:b0:
                    3d:71:cb:e2:76:d0:1a:d8:18:2d:80:1b:54:f6:e5:
                    44:9a:f1:cb:af:61:2e:df:49:0d:9d:09:b7:ed:b1:
                    fd:3c:fd:3c:fa:24:cf:5d:bf:7c:e4:53:e7:25:b5:
                    ea:44:22:e9:26:d3:ea:20:94:9e:e6:61:67:ba:2e:
                    07:67:0b:03:2f:a2:09:ed:f0:33:8f:0b:ce:10:ef:
                    67:a4:c6:08:da:c1:ed:c2:3f:d7:4a:dd:15:3d:f9:
                    5e:1c:81:60:46:3e:b5:b3:3d:2f:a6:de:47:1c:bc:
                    92:ae:eb:df:27:6b:16:56:b7:dc:ec:d1:55:57:a5:
                    6e:ec:75:25:f5:b7:7b:df:ab:d2:3a:5a:91:98:7d:
                    97:17:0b:13:0a:a7:6b:4a:8b:c1:47:30:fb:3a:f8:
                    41:04:d5:c1:df:b8:1d:bf:7b:01:a5:65:a2:e0:1e:
                    36:b7:a6:5c:cc:30:5a:f8:cd:6f:cd:f1:19:62:25:
                    ca:01:e3:35:7f:fa:20:f5:dc:fd:69:b2:6a:00:7d:
                    17:f7
                Exponent: 65537 (0x10001)
        X509v3 extensions:
            X509v3 Basic Constraints: 
                CA:FALSE
            X509v3 Subject Key Identifier: 
                7D:E4:9C:6B:E6:F9:71:7D:46:D2:12:3D:AD:6B:1D:FD:C2:AA:78:4C
            X509v3 Authority Key Identifier: 
                keyid:B4:5A:E4:A5:B3:DE:D2:52:F6:B9:D5:A6:95:0F:EB:3E:BC:C7:FD:FF

    Signature Algorithm: sha1WithRSAEncryption
        83:f7:04:f3:bd:08:cf:81:f9:a1:b0:54:a4:5f:91:1d:15:9f:
        03:ab:9a:07:0d:bd:ad:fa:ce:44:79:58:9c:88:d1:6e:48:fd:
        2b:f2:6e:fc:1f:c6:3a:28:4d:2a:f7:31:27:e4:64:6d:1c:d2:
        a7:64:18:9e:0a:07:cd:4c:44:31:e2:8f:c4:4d:d9:e5:38:85:
        32:44:ba:3d:0a:97:c8:3f:59:14:8e:aa:98:e1:69:24:49:8a:
        0e:3e:01:b5:fd:88:66:bb:ad:0c:fb:da:87:01:8d:f7:72:30:
        78:a8:eb:29:4f:3b:20:6b:3e:83:2c:ee:08:88:b1:e9:e2:37:
        48:77:76:bf:f2:92:98:58:21:04:02:1c:23:70:ff:10:45:1e:
        69:ac:67:23:0f:1e:62:ef:35:d3:c3:94:dc:99:48:7c:05:ad:
        c1:1c:1a:2a:e6:e3:d7:89:f5:44:25:1a:aa:7a:d4:8f:b7:5a:
        ae:03:4b:be:5e:e8:43:35:12:e8:b9:95:64:81:ef:26:1a:cd:
        e4:82:22:de:2e:ac:93:4f:32:f9:0b:0d:b2:5f:69:21:b9:1b:
        f8:54:c0:df:11:17:23:85:ae:71:cb:ae:17:e8:36:2f:aa:fe:
        04:04:2b:33:1b:12:2b:80:19:11:6f:ce:cb:bb:6c:fe:a5:80:
        a7:4a:6d:0f
-----BEGIN CERTIFICATE-----
MIIDOTCCAiGgAwIBAgIBDTANBgkqhkiG9w0BAQUFADA7MQswCQYDVQQGEwJOTDER
MA8GA1UEChMIUG9sYXJTU0wxGTAXBgNVBAMTEFBvbGFyU1NMIFRlc3QgQ0EwHhcN
MTIwMjA3MTYwNjM2WhcNMjIwMjA3MTYwNjM2WjA2MQswCQYDVQQGEwJOTDERMA8G
A1UEChMIUG9sYXJTU0wxFDASBgNVBAMTC2V4YW1wbGUuY29tMIIBIjANBgkqhkiG
9w0BAQEFAAOCAQ8AMIIBCgKCAQEAuTxKxcijjpAXpJ5SqnF1JmGA58e1bYz/qrZB
Jre+Ea1ccxYMZBFIBP/W4TsF24m7s5cJ1RwU3WiHObA9ccvidtAa2BgtgBtU9uVE
mvHLr2Eu30kNnQm37bH9PP08+iTPXb985FPnJbXqRCLpJtPqIJSe5mFnui4HZwsD
L6IJ7fAzjwvOEO9npMYI2sHtwj/XSt0VPfleHIFgRj61sz0vpt5HHLySruvfJ2sW
Vrfc7NFVV6Vu7HUl9bd736vSOlqRmH2XFwsTCqdrSovBRzD7OvhBBNXB37gdv3sB
pWWi4B42t6ZczDBa+M1vzfEZYiXKAeM1f/og9dz9abJqAH0X9wIDAQABo00wSzAJ
BgNVHRMEAjAAMB0GA1UdDgQWBBR95Jxr5vlxfUbSEj2tax39wqp4TDAfBgNVHSME
GDAWgBS0WuSls97SUva51aaVD+s+vMf9/zANBgkqhkiG9w0BAQUFAAOCAQEAg/cE
870Iz4H5obBUpF+RHRWfA6uaBw29rfrORHlYnIjRbkj9K/Ju/B/GOihNKvcxJ+Rk
bRzSp2QYngoHzUxEMeKPxE3Z5TiFMkS6PQqXyD9ZFI6qmOFpJEmKDj4Btf2IZrut
DPvahwGN93IweKjrKU87IGs+gyzuCIix6eI3SHd2v/KSmFghBAIcI3D/EEUeaaxn
Iw8eYu8108OU3JlIfAWtwRwaKubj14n1RCUaqnrUj7dargNLvl7oQzUS6LmVZIHv
JhrN5IIi3i6sk08y+QsNsl9pIbkb+FTA3xEXI4WuccuuF+g2L6r+BAQrMxsSK4AZ
EW/Oy7ts/qWAp0ptDw==
-----END CERTIFICATE-----
