Certificate:
    Data:
        Version: 3 (0x2)
        Serial Number: 14 (0xe)
        Signature Algorithm: sha1WithRSAEncryption
        Issuer: C=NL, O=PolarSSL, CN=PolarSSL Test CA
        Validity
            Not Before: Feb  7 16:06:36 2012 GMT
            Not After : Feb  7 16:06:36 2022 GMT
        Subject: C=NL, O=PolarSSL, CN=www.example.com
        Subject Public Key Info:
            Public Key Algorithm: rsaEncryption
                Public-Key: (2048 bit)
                Modulus:
                    00:b9:3c:4a:c5:c8:a3:8e:90:17:a4:9e:52:aa:71:
                    75:26:61:80:e7:c7:b5:6d:8c:ff:aa:b6:41:26:b7:
                    be:11:ad:5c:73:16:0c:64:11:48:04:ff:d6:e1:3b:
                    05:db:89:bb:b3:97:09:d5:1c:14:dd:68:87:39:b0:
                    3d:71:cb:e2:76:d0:1a:d8:18:2d:80:1b:54:f6:e5:
                    44:9a:f1:cb:af:61:2e:df:49:0d:9d:09:b7:ed:b1:
                    fd:3c:fd:3c:fa:24:cf:5d:bf:7c:e4:53:e7:25:b5:
                    ea:44:22:e9:26:d3:ea:20:94:9e:e6:61:67:ba:2e:
                    07:67:0b:03:2f:a2:09:ed:f0:33:8f:0b:ce:10:ef:
                    67:a4:c6:08:da:c1:ed:c2:3f:d7:4a:dd:15:3d:f9:
                    5e:1c:81:60:46:3e:b5:b3:3d:2f:a6:de:47:1c:bc:
                    92:ae:eb:df:27:6b:16:56:b7:dc:ec:d1:55:57:a5:
                    6e:ec:75:25:f5:b7:7b:df:ab:d2:3a:5a:91:98:7d:
                    97:17:0b:13:0a:a7:6b:4a:8b:c1:47:30:fb:3a:f8:
                    41:04:d5:c1:df:b8:1d:bf:7b:01:a5:65:a2:e0:1e:
                    36:b7:a6:5c:cc:30:5a:f8:cd:6f:cd:f1:19:62:25:
                    ca:01:e3:35:7f:fa:20:f5:dc:fd:69:b2:6a:00:7d:
                    17:f7
                Exponent: 65537 (0x10001)
        X509v3 extensions:
            X509v3 Basic Constraints: 
                CA:FALSE
            X509v3 Subject Key Identifier: 
                7D:E4:9C:6B:E6:F9:71:7D:46:D2:12:3D:AD:6B:1D:FD:C2:AA:78:4C
            X509v3 Authority Key Identifier: 
                keyid:B4:5A:E4:A5:B3:DE:D2:52:F6:B9:D5:A6:95:0F:EB:3E:BC:C7:FD:FF

    Signature Algorithm: sha1WithRSAEncryption
        3e:b2:e4:9b:c0:8b:a0:d1:e8:66:f4:03:7b:76:7f:7e:0f:6b:
        e5:78:ef:2f:6c:14:d6:22:5c:0c:bf:c8:70:09:ca:c5:64:a8:
        77:ed:e2:8d:ab:27:cc:40:ba:a5:95:d7:ec:a1:cc:41:3d:6b:
        e3:69:c5:cb:10:c6:75:59:2c:6f:3d:2d:b3:c3:f8:75:4a:d4:
        31:2e:e9:fc:72:4b:42:ed:c8:f7:6e:cd:da:98:db:3f:e2:3b:
        ea:26:1b:73:eb:59:f5:10:48:07:45:a3:20:40:2c:c6:95:59:
        08:82:26:ab:13:9f:ea:66:b1:05:e5:99:1d:26:0f:21:0f:b5:
        2e:52:82:99:53:85:a8:fe:b7:6e:e9:ed:44:01:f8:c8:08:d0:
        64:25:43:70:da:3f:1b:0d:97:81:1b:2a:5d:e4:17:10:20:b0:
        eb:56:44:be:ec:55:4a:66:c1:c9:69:7b:36:01:66:36:14:22:
        37:a4:96:d2:db:0e:bd:01:e9:3e:6a:ef:94:94:63:69:ea:27:
        7c:40:29:4a:38:f0:06:dd:4a:06:ef:8b:92:98:ad:02:60:a0:
        3c:6c:53:4c:a1:5b:ae:c7:a2:61:ee:0e:18:c6:f8:46:80:c6:
        2f:55:38:2a:33:84:da:9a:a4:69:ae:c3:8a:a1:e2:07:6c:71:
        9b:56:fd:93
-----BEGIN CERTIFICATE-----
MIIDPTCCAiWgAwIBAgIBDjANBgkqhkiG9w0BAQUFADA7MQswCQYDVQQGEwJOTDER
MA8GA1UEChMIUG9sYXJTU0wxGTAXBgNVBAMTEFBvbGFyU1NMIFRlc3QgQ0EwHhcN
MTIwMjA3MTYwNjM2WhcNMjIwMjA3MTYwNjM2WjA6MQswCQYDVQQGEwJOTDERMA8G
A1UEChMIUG9sYXJTU0wxGDAWBgNVBAMTD3d3dy5leGFtcGxlLmNvbTCCASIwDQYJ
KoZIhvcNAQEBBQADggEPADCCAQoCggEBALk8SsXIo46QF6SeUqpxdSZhgOfHtW2M
/6q2QSa3vhGtXHMWDGQRSAT/1uE7BduJu7OXCdUcFN1ohzmwPXHL4nbQGtgYLYAb
VPblRJrxy69hLt9JDZ0Jt+2x/Tz9PPokz12/fORT5yW16kQi6SbT6iCUnuZhZ7ou
B2cLAy+iCe3wM48LzhDvZ6TGCNrB7cI/10rdFT35XhyBYEY+tbM9L6beRxy8kq7r
3ydrFla33OzRVVelbux1JfW3e9+r0jpakZh9lxcLEwqna0qLwUcw+zr4QQTVwd+4
Hb97AaVlouAeNremXMwwWvjNb83xGWIlygHjNX/6IPXc/WmyagB9F/cCAwEAAaNN
MEswCQYDVR0TBAIwADAdBgNVHQ4EFgQUfeSca+b5cX1G0hI9rWsd/cKqeEwwHwYD
VR0jBBgwFoAUtFrkpbPe0lL2udWmlQ/rPrzH/f8wDQYJKoZIhvcNAQEFBQADggEB
AD6y5JvAi6DR6Gb0A3t2f34Pa+V47y9sFNYiXAy/yHAJysVkqHft4o2rJ8xAuqWV
1+yhzEE9a+NpxcsQxnVZLG89LbPD+HVK1DEu6fxyS0LtyPduzdqY2z/iO+omG3Pr
WfUQSAdFoyBALMaVWQiCJqsTn+pmsQXlmR0mDyEPtS5SgplThaj+t27p7UQB+MgI
0GQlQ3DaPxsNl4EbKl3kFxAgsOtWRL7sVUpmwclpezYBZjYUIjekltLbDr0B6T5q
75SUY2nqJ3xAKUo48AbdSgbvi5KYrQJgoDxsU0yhW67HomHuDhjG+EaAxi9VOCoz
hNqapGmuw4qh4gdscZtW/ZM=
-----END CERTIFICATE-----
