Certificate:
    Data:
        Version: 3 (0x2)
        Serial Number: 15 (0xf)
        Signature Algorithm: sha1WithRSAEncryption
        Issuer: C=NL, O=PolarSSL, CN=PolarSSL Test CA
        Validity
            Not Before: Feb  7 16:06:36 2012 GMT
            Not After : Feb  7 16:06:36 2022 GMT
        Subject: C=NL, O=PolarSSL, CN=www.example.com
        Subject Public Key Info:
            Public Key Algorithm: rsaEncryption
                Public-Key: (2048 bit)
                Modulus:
                    00:b9:3c:4a:c5:c8:a3:8e:90:17:a4:9e:52:aa:71:
                    75:26:61:80:e7:c7:b5:6d:8c:ff:aa:b6:41:26:b7:
                    be:11:ad:5c:73:16:0c:64:11:48:04:ff:d6:e1:3b:
                    05:db:89:bb:b3:97:09:d5:1c:14:dd:68:87:39:b0:
                    3d:71:cb:e2:76:d0:1a:d8:18:2d:80:1b:54:f6:e5:
                    44:9a:f1:cb:af:61:2e:df:49:0d:9d:09:b7:ed:b1:
                    fd:3c:fd:3c:fa:24:cf:5d:bf:7c:e4:53:e7:25:b5:
                    ea:44:22:e9:26:d3:ea:20:94:9e:e6:61:67:ba:2e:
                    07:67:0b:03:2f:a2:09:ed:f0:33:8f:0b:ce:10:ef:
                    67:a4:c6:08:da:c1:ed:c2:3f:d7:4a:dd:15:3d:f9:
                    5e:1c:81:60:46:3e:b5:b3:3d:2f:a6:de:47:1c:bc:
                    92:ae:eb:df:27:6b:16:56:b7:dc:ec:d1:55:57:a5:
                    6e:ec:75:25:f5:b7:7b:df:ab:d2:3a:5a:91:98:7d:
                    97:17:0b:13:0a:a7:6b:4a:8b:c1:47:30:fb:3a:f8:
                    41:04:d5:c1:df:b8:1d:bf:7b:01:a5:65:a2:e0:1e:
                    36:b7:a6:5c:cc:30:5a:f8:cd:6f:cd:f1:19:62:25:
                    ca:01:e3:35:7f:fa:20:f5:dc:fd:69:b2:6a:00:7d:
                    17:f7
                Exponent: 65537 (0x10001)
        X509v3 extensions:
            X509v3 Basic Constraints: 
                CA:FALSE
            X509v3 Subject Key Identifier: 
                7D:E4:9C:6B:E6:F9:71:7D:46:D2:12:3D:AD:6B:1D:FD:C2:AA:78:4C
            X509v3 Authority Key Identifier: 
                keyid:B4:5A:E4:A5:B3:DE:D2:52:F6:B9:D5:A6:95:0F:EB:3E:BC:C7:FD:FF

            X509v3 Subject Alternative Name: 
                DNS:www.example.com, DNS:example.com, DNS:example.net
    Signature Algorithm: sha1WithRSAEncryption
        35:06:02:c6:0a:87:d5:02:5e:fa:74:71:50:bc:ac:8d:b2:c1:
        00:18:7f:a5:bc:41:c3:fe:69:44:77:3b:2d:62:99:32:5d:c6:
        5b:bc:f4:d6:9e:7c:3d:71:ef:46:d9:a9:ee:df:c2:d0:e1:e4:
        ba:23:60:96:8a:18:f7:dd:1b:2b:60:fc:b6:19:83:73:97:e8:
        99:50:e2:58:81:10:14:ab:8e:e1:64:0a:b5:15:aa:49:c6:dc:
        0b:83:34:c5:3c:d4:ee:80:6a:90:db:41:3e:62:81:b8:fb:9e:
        32:48:89:80:06:64:52:70:2e:66:31:2f:02:1d:c2:da:47:c1:
        7d:ad:48:10:c8:b0:62:76:aa:e5:40:f7:1a:34:75:4b:b3:be:
        69:75:dc:72:e0:f6:c2:b8:0a:01:2d:57:6f:26:fc:0f:50:e3:
        8d:17:48:a0:5f:83:b3:c1:e7:b2:e4:00:10:90:bb:5f:58:f5:
        66:8c:ec:17:82:5a:97:0d:b8:0f:ce:2d:5e:2a:5b:36:bc:e0:
        f1:29:77:44:46:17:93:cc:c3:58:5c:c0:ea:01:23:cc:5b:cf:
        c4:a2:af:01:24:0f:b5:d3:22:45:c3:a3:ff:0f:4d:b7:bb:96:
        01:b4:7b:cc:c4:5e:c7:5f:ed:65:38:3a:1f:58:2c:87:7d:a4:
        92:a4:3e:79
-----BEGIN CERTIFICATE-----
MIIDdTCCAl2gAwIBAgIBDzANBgkqhkiG9w0BAQUFADA7MQswCQYDVQQGEwJOTDER
MA8GA1UEChMIUG9sYXJTU0wxGTAXBgNVBAMTEFBvbGFyU1NMIFRlc3QgQ0EwHhcN
MTIwMjA3MTYwNjM2WhcNMjIwMjA3MTYwNjM2WjA6MQswCQYDVQQGEwJOTDERMA8G
A1UEChMIUG9sYXJTU0wxGDAWBgNVBAMTD3d3dy5leGFtcGxlLmNvbTCCASIwDQYJ
KoZIhvcNAQEBBQADggEPADCCAQoCggEBALk8SsXIo46QF6SeUqpxdSZhgOfHtW2M
/6q2QSa3vhGtXHMWDGQRSAT/1uE7BduJu7OXCdUcFN1ohzmwPXHL4nbQGtgYLYAb
VPblRJrxy69hLt9JDZ0Jt+2x/Tz9PPokz12/fORT5yW16kQi6SbT6iCUnuZhZ7ou
B2cLAy+iCe3wM48LzhDvZ6TGCNrB7cI/10rdFT35XhyBYEY+tbM9L6beRxy8kq7r
3ydrFla33OzRVVelbux1JfW3e9+r0jpakZh9lxcLEwqna0qLwUcw+zr4QQTVwd+4
Hb97AaVlouAeNremXMwwWvjNb83xGWIlygHjNX/6IPXc/WmyagB9F/cCAwEAAaOB
hDCBgTAJBgNVHRMEAjAAMB0GA1UdDgQWBBR95Jxr5vlxfUbSEj2tax39wqp4TDAf
BgNVHSMEGDAWgBS0WuSls97SUva51aaVD+s+vMf9/zA0BgNVHREELTArgg93d3cu
ZXhhbXBsZS5jb22CC2V4YW1wbGUuY29tggtleGFtcGxlLm5ldDANBgkqhkiG9w0B
AQUFAAOCAQEANQYCxgqH1QJe+nRxULysjbLBABh/pbxBw/5pRHc7LWKZMl3GW7z0
1p58PXHvRtmp7t/C0OHkuiNglooY990bK2D8thmDc5fomVDiWIEQFKuO4WQKtRWq
ScbcC4M0xTzU7oBqkNtBPmKBuPueMkiJgAZkUnAuZjEvAh3C2kfBfa1IEMiwYnaq
5UD3GjR1S7O+aXXccuD2wrgKAS1Xbyb8D1DjjRdIoF+Ds8HnsuQAEJC7X1j1Zozs
F4Jalw24D84tXipbNrzg8Sl3REYXk8zDWFzA6gEjzFvPxKKvASQPtdMiRcOj/w9N
t7uWAbR7zMRex1/tZTg6H1gsh32kkqQ+eQ==
-----END CERTIFICATE-----
