Certificate:
    Data:
        Version: 3 (0x2)
        Serial Number: 16 (0x10)
        Signature Algorithm: sha1WithRSAEncryption
        Issuer: C=NL, O=PolarSSL, CN=PolarSSL Test CA
        Validity
            Not Before: Feb 11 17:25:55 2012 GMT
            Not After : Feb 11 17:25:55 2022 GMT
        Subject: C=NL, O=PolarSSL, CN=www.example.com
        Subject Public Key Info:
            Public Key Algorithm: rsaEncryption
                Public-Key: (2048 bit)
                Modulus:
                    00:b9:3c:4a:c5:c8:a3:8e:90:17:a4:9e:52:aa:71:
                    75:26:61:80:e7:c7:b5:6d:8c:ff:aa:b6:41:26:b7:
                    be:11:ad:5c:73:16:0c:64:11:48:04:ff:d6:e1:3b:
                    05:db:89:bb:b3:97:09:d5:1c:14:dd:68:87:39:b0:
                    3d:71:cb:e2:76:d0:1a:d8:18:2d:80:1b:54:f6:e5:
                    44:9a:f1:cb:af:61:2e:df:49:0d:9d:09:b7:ed:b1:
                    fd:3c:fd:3c:fa:24:cf:5d:bf:7c:e4:53:e7:25:b5:
                    ea:44:22:e9:26:d3:ea:20:94:9e:e6:61:67:ba:2e:
                    07:67:0b:03:2f:a2:09:ed:f0:33:8f:0b:ce:10:ef:
                    67:a4:c6:08:da:c1:ed:c2:3f:d7:4a:dd:15:3d:f9:
                    5e:1c:81:60:46:3e:b5:b3:3d:2f:a6:de:47:1c:bc:
                    92:ae:eb:df:27:6b:16:56:b7:dc:ec:d1:55:57:a5:
                    6e:ec:75:25:f5:b7:7b:df:ab:d2:3a:5a:91:98:7d:
                    97:17:0b:13:0a:a7:6b:4a:8b:c1:47:30:fb:3a:f8:
                    41:04:d5:c1:df:b8:1d:bf:7b:01:a5:65:a2:e0:1e:
                    36:b7:a6:5c:cc:30:5a:f8:cd:6f:cd:f1:19:62:25:
                    ca:01:e3:35:7f:fa:20:f5:dc:fd:69:b2:6a:00:7d:
                    17:f7
                Exponent: 65537 (0x10001)
        X509v3 extensions:
            X509v3 Basic Constraints: 
                CA:FALSE
            X509v3 Subject Key Identifier: 
                7D:E4:9C:6B:E6:F9:71:7D:46:D2:12:3D:AD:6B:1D:FD:C2:AA:78:4C
            X509v3 Authority Key Identifier: 
                keyid:B4:5A:E4:A5:B3:DE:D2:52:F6:B9:D5:A6:95:0F:EB:3E:BC:C7:FD:FF

            X509v3 Subject Alternative Name: 
                DNS:www.example.com, DNS:example.com, DNS:example.net, DNS:*.example.org
    Signature Algorithm: sha1WithRSAEncryption
        09:0b:61:f4:8d:b9:78:18:47:48:f0:5f:0c:d6:67:4f:66:fe:
        fd:51:6f:8e:9b:75:c0:1c:d1:73:dc:50:64:41:c7:99:2d:31:
        47:51:6a:3a:44:1f:69:a8:6b:e6:e0:d8:81:9f:82:b9:02:5b:
        80:cf:fe:aa:a6:fe:73:f4:20:66:11:3d:e9:aa:69:97:30:49:
        d1:7e:04:63:66:7c:51:6a:c1:1e:e8:96:9d:2a:f2:2e:97:2d:
        1c:66:da:bc:39:1b:19:42:a2:01:85:69:59:93:b6:bd:af:bf:
        95:f0:40:d5:6c:b7:27:b7:99:bb:c6:ed:f5:ad:fe:81:be:4e:
        9b:6e:e3:b9:10:0d:21:c9:2f:e7:fe:34:32:96:64:a2:19:23:
        89:87:c6:4a:7f:65:c7:76:21:83:8b:bb:77:a3:1e:52:0a:25:
        68:c2:2c:1f:1f:e6:cb:c1:35:a6:df:1b:05:05:77:3f:40:92:
        10:ac:cb:1a:c3:25:cd:21:56:7e:99:f7:a3:93:b3:18:77:69:
        22:e0:ee:cd:97:92:34:37:48:b3:fe:c5:6f:f8:25:29:3d:6c:
        50:73:47:8f:4d:13:55:3b:c8:69:be:5d:8f:a8:26:f6:c5:47:
        4d:b9:ee:95:ce:b8:29:59:e6:6a:e2:ce:9b:01:ef:0a:18:62:
        40:46:ed:3b
-----BEGIN CERTIFICATE-----
MIIDhDCCAmygAwIBAgIBEDANBgkqhkiG9w0BAQUFADA7MQswCQYDVQQGEwJOTDER
MA8GA1UEChMIUG9sYXJTU0wxGTAXBgNVBAMTEFBvbGFyU1NMIFRlc3QgQ0EwHhcN
MTIwMjExMTcyNTU1WhcNMjIwMjExMTcyNTU1WjA6MQswCQYDVQQGEwJOTDERMA8G
A1UEChMIUG9sYXJTU0wxGDAWBgNVBAMTD3d3dy5leGFtcGxlLmNvbTCCASIwDQYJ
KoZIhvcNAQEBBQADggEPADCCAQoCggEBALk8SsXIo46QF6SeUqpxdSZhgOfHtW2M
/6q2QSa3vhGtXHMWDGQRSAT/1uE7BduJu7OXCdUcFN1ohzmwPXHL4nbQGtgYLYAb
VPblRJrxy69hLt9JDZ0Jt+2x/Tz9PPokz12/fORT5yW16kQi6SbT6iCUnuZhZ7ou
B2cLAy+iCe3wM48LzhDvZ6TGCNrB7cI/10rdFT35XhyBYEY+tbM9L6beRxy8kq7r
3ydrFla33OzRVVelbux1JfW3e9+r0jpakZh9lxcLEwqna0qLwUcw+zr4QQTVwd+4
Hb97AaVlouAeNremXMwwWvjNb83xGWIlygHjNX/6IPXc/WmyagB9F/cCAwEAAaOB
kzCBkDAJBgNVHRMEAjAAMB0GA1UdDgQWBBR95Jxr5vlxfUbSEj2tax39wqp4TDAf
BgNVHSMEGDAWgBS0WuSls97SUva51aaVD+s+vMf9/zBDBgNVHREEPDA6gg93d3cu
ZXhhbXBsZS5jb22CC2V4YW1wbGUuY29tggtleGFtcGxlLm5ldIINKi5leGFtcGxl
Lm9yZzANBgkqhkiG9w0BAQUFAAOCAQEACQth9I25eBhHSPBfDNZnT2b+/VFvjpt1
wBzRc9xQZEHHmS0xR1FqOkQfaahr5uDYgZ+CuQJbgM/+qqb+c/QgZhE96applzBJ
0X4EY2Z8UWrBHuiWnSryLpctHGbavDkbGUKiAYVpWZO2va+/lfBA1Wy3J7eZu8bt
9a3+gb5Om27juRANIckv5/40MpZkohkjiYfGSn9lx3Yhg4u7d6MeUgolaMIsHx/m
y8E1pt8bBQV3P0CSEKzLGsMlzSFWfpn3o5OzGHdpIuDuzZeSNDdIs/7Fb/glKT1s
UHNHj00TVTvIab5dj6gm9sVHTbnulc64KVnmauLOmwHvChhiQEbtOw==
-----END CERTIFICATE-----
