Certificate:
    Data:
        Version: 3 (0x2)
        Serial Number: 4 (0x4)
        Signature Algorithm: sha1WithRSAEncryption
        Issuer: C=NL, O=PolarSSL, CN=PolarSSL Test CA
        Validity
            Not Before: Feb 12 14:44:07 2011 GMT
            Not After : Feb 12 14:44:07 2021 GMT
        Subject: C=NL, O=PolarSSL, CN=PolarSSL Client 2
        Subject Public Key Info:
            Public Key Algorithm: rsaEncryption
            RSA Public Key: (2048 bit)
                Modulus (2048 bit):
                    00:c8:74:c4:cc:b9:f9:b5:79:e9:45:d9:14:60:b0:
                    7d:bb:93:f2:6b:1e:9f:33:ad:0d:8f:8a:3c:56:65:
                    e5:dc:44:d9:cc:66:85:07:d5:f8:27:b0:4a:35:d0:
                    63:9e:0a:6e:1b:b7:da:f0:7e:ab:ee:0c:10:93:86:
                    49:18:34:f3:a8:2a:d2:57:f5:2e:d4:2f:77:29:84:
                    61:4d:82:50:8f:a7:95:48:70:f5:6e:4d:b2:d5:13:
                    c3:d2:1a:ed:e6:43:ea:42:14:eb:74:ea:c0:ed:1f:
                    d4:57:4e:a9:f3:a8:ed:d2:e0:c1:30:71:30:32:30:
                    d5:d3:f6:08:d0:56:4f:46:8e:f2:5f:f9:3d:67:91:
                    88:30:2e:42:b2:df:7d:fb:e5:0c:77:ff:ec:31:c0:
                    78:8f:bf:c2:7f:ca:ad:6c:21:d6:8d:d9:8b:6a:8e:
                    6f:e0:9b:f8:10:56:cc:b3:8e:13:15:e6:34:04:66:
                    c7:ee:f9:36:0e:6a:95:f6:09:9a:06:67:f4:65:71:
                    f8:ca:a4:b1:25:e0:fe:3c:8b:35:04:67:ba:e0:4f:
                    76:85:fc:7f:fc:36:6b:b5:e9:cd:2d:03:62:4e:b3:
                    3d:00:cf:af:76:a0:69:56:83:6a:d2:a8:d4:e7:50:
                    71:e6:b5:36:05:77:05:6d:7b:c8:e4:c4:fd:4c:d5:
                    21:5f
                Exponent: 65537 (0x10001)
        X509v3 extensions:
            X509v3 Basic Constraints: 
                CA:FALSE
            X509v3 Subject Key Identifier: 
                71:A1:00:73:72:40:2F:54:76:5E:33:FC:52:8F:BC:F1:DD:6B:46:21
            X509v3 Authority Key Identifier: 
                keyid:B4:5A:E4:A5:B3:DE:D2:52:F6:B9:D5:A6:95:0F:EB:3E:BC:C7:FD:FF

    Signature Algorithm: sha1WithRSAEncryption
        02:7f:3a:8a:c0:0c:f1:7f:a6:57:02:6a:78:8b:6d:e8:4f:6c:
        96:11:10:6c:0a:1f:ca:4f:9d:88:7d:4b:87:c6:3d:88:b9:56:
        41:22:9b:c3:f5:17:62:3c:79:2c:b3:d9:72:78:a8:bf:12:1c:
        01:10:bf:06:3c:99:47:d8:37:53:04:c7:34:63:66:fa:bc:2b:
        a9:ad:79:be:2b:8d:38:50:5c:87:29:17:fc:ea:ec:93:4d:84:
        1f:b3:51:02:5c:39:58:b3:e8:ad:88:c4:0f:a7:1d:55:08:01:
        97:da:2d:f7:71:dd:26:88:11:89:70:b1:12:b3:3b:34:2f:3f:
        78:fe:75:d6:68:ea:fa:e2:c3:8c:b2:87:f1:93:d0:f0:8e:1e:
        90:72:67:ae:82:ec:0e:42:30:5c:a1:88:b2:f2:01:1d:0c:b6:
        69:cf:cd:c0:72:c2:40:e2:ba:99:fb:a6:d6:94:71:e7:65:78:
        52:db:b9:74:b2:e3:0f:96:cc:c4:e0:42:ec:a5:38:c5:92:ae:
        31:75:d9:33:af:fd:dd:86:f9:d4:af:c9:e1:a8:5f:d5:3c:49:
        95:35:97:b6:7c:c3:af:db:1a:11:87:4d:cb:64:8a:63:fe:99:
        88:33:47:0f:eb:2d:a4:02:a2:40:b0:16:68:0b:ac:21:62:98:
        13:2c:3d:31
-----BEGIN CERTIFICATE-----
MIIDPzCCAiegAwIBAgIBBDANBgkqhkiG9w0BAQUFADA7MQswCQYDVQQGEwJOTDER
MA8GA1UEChMIUG9sYXJTU0wxGTAXBgNVBAMTEFBvbGFyU1NMIFRlc3QgQ0EwHhcN
MTEwMjEyMTQ0NDA3WhcNMjEwMjEyMTQ0NDA3WjA8MQswCQYDVQQGEwJOTDERMA8G
A1UEChMIUG9sYXJTU0wxGjAYBgNVBAMTEVBvbGFyU1NMIENsaWVudCAyMIIBIjAN
BgkqhkiG9w0BAQEFAAOCAQ8AMIIBCgKCAQEAyHTEzLn5tXnpRdkUYLB9u5Pyax6f
M60Nj4o8VmXl3ETZzGaFB9X4J7BKNdBjngpuG7fa8H6r7gwQk4ZJGDTzqCrSV/Uu
1C93KYRhTYJQj6eVSHD1bk2y1RPD0hrt5kPqQhTrdOrA7R/UV06p86jt0uDBMHEw
MjDV0/YI0FZPRo7yX/k9Z5GIMC5Cst99++UMd//sMcB4j7/Cf8qtbCHWjdmLao5v
4Jv4EFbMs44TFeY0BGbH7vk2DmqV9gmaBmf0ZXH4yqSxJeD+PIs1BGe64E92hfx/
/DZrtenNLQNiTrM9AM+vdqBpVoNq0qjU51Bx5rU2BXcFbXvI5MT9TNUhXwIDAQAB
o00wSzAJBgNVHRMEAjAAMB0GA1UdDgQWBBRxoQBzckAvVHZeM/xSj7zx3WtGITAf
BgNVHSMEGDAWgBS0WuSls97SUva51aaVD+s+vMf9/zANBgkqhkiG9w0BAQUFAAOC
AQEAAn86isAM8X+mVwJqeItt6E9slhEQbAofyk+diH1Lh8Y9iLlWQSKbw/UXYjx5
LLPZcniovxIcARC/BjyZR9g3UwTHNGNm+rwrqa15viuNOFBchykX/Orsk02EH7NR
Alw5WLPorYjED6cdVQgBl9ot93HdJogRiXCxErM7NC8/eP511mjq+uLDjLKH8ZPQ
8I4ekHJnroLsDkIwXKGIsvIBHQy2ac/NwHLCQOK6mfum1pRx52V4Utu5dLLjD5bM
xOBC7KU4xZKuMXXZM6/93Yb51K/J4ahf1TxJlTWXtnzDr9saEYdNy2SKY/6ZiDNH
D+stpAKiQLAWaAusIWKYEyw9MQ==
-----END CERTIFICATE-----
