Certificate:
    Data:
        Version: 3 (0x2)
        Serial Number: 3 (0x3)
        Signature Algorithm: sha1WithRSAEncryption
        Issuer: C=NL, O=PolarSSL, CN=PolarSSL Test CA
        Validity
            Not Before: Feb 12 14:44:06 2011 GMT
            Not After : Feb 12 14:44:06 2021 GMT
        Subject: C=NL, O=PolarSSL, CN=PolarSSL Client 1
        Subject Public Key Info:
            Public Key Algorithm: rsaEncryption
            RSA Public Key: (2048 bit)
                Modulus (2048 bit):
                    00:95:31:a2:ea:fb:4a:e0:94:a5:e4:49:69:b9:50:
                    7c:de:24:a0:26:f7:4a:a2:a5:c8:da:a4:a3:0e:a2:
                    82:5d:11:d1:4e:30:48:ca:c2:2e:41:8b:ce:ca:8c:
                    50:76:2e:22:d6:ad:b0:98:c5:d6:a3:0b:f9:93:83:
                    2a:47:23:01:b3:93:c9:51:61:a8:f5:27:a6:b8:fb:
                    cc:88:20:0b:61:f4:19:77:3c:24:92:94:85:4a:ae:
                    be:89:69:c0:12:22:b0:5f:19:7c:c6:0c:80:a9:c9:
                    c6:7f:ea:9b:13:cf:ca:56:f5:5d:86:46:10:a3:17:
                    c7:28:1a:96:e4:3b:78:49:f0:44:e5:71:0b:e6:ee:
                    b4:39:8c:e6:36:1b:bd:6b:63:7a:dc:74:5a:53:99:
                    c9:d6:1c:c2:45:04:2a:4b:95:42:c6:8e:a9:79:69:
                    e6:b7:d3:6f:df:f2:fa:6f:65:e8:d7:13:68:88:70:
                    0e:6e:cd:aa:2d:be:13:c4:df:d7:f3:8f:97:88:2c:
                    70:0e:cc:dd:14:d7:db:d0:8b:12:a6:e4:3f:e6:43:
                    bb:10:4e:d6:70:80:a7:99:af:52:24:fe:39:81:c2:
                    a1:39:a8:63:ed:81:07:b2:09:49:9c:9d:bd:2e:69:
                    14:25:a2:9f:f3:ef:42:6a:62:2f:b7:ae:2c:71:ba:
                    d9:59
                Exponent: 65537 (0x10001)
        X509v3 extensions:
            X509v3 Basic Constraints: 
                CA:FALSE
            X509v3 Subject Key Identifier: 
                DC:6E:4E:97:49:B9:7C:E5:B3:EA:E3:F9:85:A2:D2:F9:45:4C:CC:3B
            X509v3 Authority Key Identifier: 
                keyid:B4:5A:E4:A5:B3:DE:D2:52:F6:B9:D5:A6:95:0F:EB:3E:BC:C7:FD:FF

    Signature Algorithm: sha1WithRSAEncryption
        06:a1:49:14:9c:4a:be:34:50:2b:a5:9f:04:3a:09:23:fb:ec:
        04:e8:a3:f7:c5:80:1d:87:f6:3d:46:ca:dd:14:5d:e9:06:69:
        72:9b:8c:c5:18:f2:2b:b9:7c:ed:1b:41:8d:f5:8e:c8:0a:fd:
        c0:7b:3e:72:f0:1c:d0:eb:0d:de:04:87:8a:35:44:a0:c5:68:
        6b:8f:0e:5c:ee:d9:fb:de:99:9b:94:42:f6:b1:14:24:5e:77:
        0a:9c:1d:94:55:c8:85:08:6d:2e:6d:65:4e:6f:62:ef:4d:f0:
        7b:c6:eb:7e:e9:5a:65:1c:aa:d1:f5:36:39:81:37:cf:90:14:
        be:ce:a8:fe:bf:53:e1:ee:06:ee:42:a1:d8:19:58:a2:02:26:
        b8:96:92:e8:e8:62:5b:c2:a1:33:bc:f1:5b:03:8b:25:67:40:
        de:e7:f5:f5:af:cd:8c:86:18:8d:66:c7:5d:0e:c0:57:f1:dc:
        c2:24:58:0c:40:14:93:6b:6b:17:34:f1:cd:07:35:d0:76:68:
        1b:9b:7a:b0:a7:a6:8a:3a:cc:e9:e1:a5:5a:8d:c6:16:7d:c9:
        f7:80:33:20:ae:5d:8b:8b:f3:52:8a:2c:7f:6d:a9:c2:3a:41:
        44:e3:41:c1:69:6f:aa:53:41:39:69:1e:a8:8f:2e:47:70:06:
        62:f7:da:77
-----BEGIN CERTIFICATE-----
MIIDPzCCAiegAwIBAgIBAzANBgkqhkiG9w0BAQUFADA7MQswCQYDVQQGEwJOTDER
MA8GA1UEChMIUG9sYXJTU0wxGTAXBgNVBAMTEFBvbGFyU1NMIFRlc3QgQ0EwHhcN
MTEwMjEyMTQ0NDA2WhcNMjEwMjEyMTQ0NDA2WjA8MQswCQYDVQQGEwJOTDERMA8G
A1UEChMIUG9sYXJTU0wxGjAYBgNVBAMTEVBvbGFyU1NMIENsaWVudCAxMIIBIjAN
BgkqhkiG9w0BAQEFAAOCAQ8AMIIBCgKCAQEAlTGi6vtK4JSl5ElpuVB83iSgJvdK
oqXI2qSjDqKCXRHRTjBIysIuQYvOyoxQdi4i1q2wmMXWowv5k4MqRyMBs5PJUWGo
9SemuPvMiCALYfQZdzwkkpSFSq6+iWnAEiKwXxl8xgyAqcnGf+qbE8/KVvVdhkYQ
oxfHKBqW5Dt4SfBE5XEL5u60OYzmNhu9a2N63HRaU5nJ1hzCRQQqS5VCxo6peWnm
t9Nv3/L6b2Xo1xNoiHAObs2qLb4TxN/X84+XiCxwDszdFNfb0IsSpuQ/5kO7EE7W
cICnma9SJP45gcKhOahj7YEHsglJnJ29LmkUJaKf8+9CamIvt64scbrZWQIDAQAB
o00wSzAJBgNVHRMEAjAAMB0GA1UdDgQWBBTcbk6XSbl85bPq4/mFotL5RUzMOzAf
BgNVHSMEGDAWgBS0WuSls97SUva51aaVD+s+vMf9/zANBgkqhkiG9w0BAQUFAAOC
AQEABqFJFJxKvjRQK6WfBDoJI/vsBOij98WAHYf2PUbK3RRd6QZpcpuMxRjyK7l8
7RtBjfWOyAr9wHs+cvAc0OsN3gSHijVEoMVoa48OXO7Z+96Zm5RC9rEUJF53Cpwd
lFXIhQhtLm1lTm9i703we8brfulaZRyq0fU2OYE3z5AUvs6o/r9T4e4G7kKh2BlY
ogImuJaS6OhiW8KhM7zxWwOLJWdA3uf19a/NjIYYjWbHXQ7AV/HcwiRYDEAUk2tr
FzTxzQc10HZoG5t6sKemijrM6eGlWo3GFn3J94AzIK5di4vzUoosf22pwjpBRONB
wWlvqlNBOWkeqI8uR3AGYvfadw==
-----END CERTIFICATE-----
